; Function Attrs: mustprogress uwtable
define hidden void @_ZN2cv3dnn14dnn4_v2024122312ONNXImporter18parseDepthSpaceOpsERNS1_11LayerParamsERKN11opencv_onnx9NodeProtoE(ptr noundef nonnull align 8 dereferenceable(585) %0, ptr noundef nonnull align 8 dereferenceable(136) %1, ptr noundef nonnull readonly align 8 captures(none) dereferenceable(128) %2) #4 align 2 personality ptr @__gxx_personality_v0 {
._crit_edge.i.i:
  %3 = alloca %"class.std::__cxx11::basic_string", align 8
  %4 = alloca %"class.std::__cxx11::basic_string", align 8
  %5 = alloca %"class.std::allocator.6", align 1
  call void @llvm.lifetime.start.p0(i64 32, ptr nonnull %3) #31
  %6 = getelementptr inbounds nuw i8, ptr %3, i64 16
  store ptr %6, ptr %3, align 8, !tbaa !46
  call void @llvm.memcpy.p0.p0.i64(ptr noundef nonnull align 8 dereferenceable(9) %6, ptr noundef nonnull align 1 dereferenceable(9) @.str.407, i64 9, i1 false)
  %7 = getelementptr inbounds nuw i8, ptr %3, i64 8
  store i64 9, ptr %7, align 8, !tbaa !40
  %8 = getelementptr inbounds nuw i8, ptr %3, i64 25
  store i8 0, ptr %8, align 1, !tbaa !48
  %9 = getelementptr inbounds nuw i8, ptr %1, i64 16
  %10 = load ptr, ptr %9, align 8, !tbaa !31
  %11 = getelementptr inbounds nuw i8, ptr %1, i64 8
  %.not10.i.i.i.i = icmp eq ptr %10, null
  br i1 %.not10.i.i.i.i, label %_ZNSt7__cxx1112basic_stringIcSt11char_traitsIcESaIcEED2Ev.exit.thread, label %.lr.ph.i.i.i.i

.lr.ph.i.i.i.i:                                   ; preds = %._crit_edge.i.i, %_ZNKSt4lessINSt7__cxx1112basic_stringIcSt11char_traitsIcESaIcEEEEclERKS5_S8_.exit.i.i.i.i
  %.012.i.i.i.i = phi ptr [ %.1.i.i.i.i, %_ZNKSt4lessINSt7__cxx1112basic_stringIcSt11char_traitsIcESaIcEEEEclERKS5_S8_.exit.i.i.i.i ], [ %10, %._crit_edge.i.i ]
  %.0811.i.i.i.i = phi ptr [ %.19.i.i.i.i, %_ZNKSt4lessINSt7__cxx1112basic_stringIcSt11char_traitsIcESaIcEEEEclERKS5_S8_.exit.i.i.i.i ], [ %11, %._crit_edge.i.i ]
  %12 = getelementptr inbounds nuw i8, ptr %.012.i.i.i.i, i64 40
  %13 = load i64, ptr %12, align 8, !tbaa !40
  %14 = icmp eq i64 %13, 0
  br i1 %14, label %_ZNSt11char_traitsIcE7compareEPKcS2_m.exit.thread.i.i.i.i.i.i.i, label %_ZNSt11char_traitsIcE7compareEPKcS2_m.exit.i.i.i.i.i.i.i

_ZNSt11char_traitsIcE7compareEPKcS2_m.exit.i.i.i.i.i.i.i: ; preds = %.lr.ph.i.i.i.i
  %.sroa.speculated.i.i.i.i.i.i.i = call i64 @llvm.umin.i64(i64 %13, i64 9)
  %15 = getelementptr inbounds nuw i8, ptr %.012.i.i.i.i, i64 32
  %16 = load ptr, ptr %15, align 8, !tbaa !36
  %17 = call i32 @memcmp(ptr noundef %16, ptr noundef nonnull %6, i64 noundef %.sroa.speculated.i.i.i.i.i.i.i) #31
  %.not.i.i.i.i.i.i.i = icmp eq i32 %17, 0
  br i1 %.not.i.i.i.i.i.i.i, label %_ZNSt11char_traitsIcE7compareEPKcS2_m.exit.thread.i.i.i.i.i.i.i, label %_ZNKSt4lessINSt7__cxx1112basic_stringIcSt11char_traitsIcESaIcEEEEclERKS5_S8_.exit.i.i.i.i

_ZNSt11char_traitsIcE7compareEPKcS2_m.exit.thread.i.i.i.i.i.i.i: ; preds = %_ZNSt11char_traitsIcE7compareEPKcS2_m.exit.i.i.i.i.i.i.i, %.lr.ph.i.i.i.i
  %18 = add i64 %13, -9
  %spec.select7.i.i.i.i.i.i.i.i = call i64 @llvm.smax.i64(i64 %18, i64 -2147483648)
  %.08.i.i.i.i.i.i.i.i = call i64 @llvm.smin.i64(i64 %spec.select7.i.i.i.i.i.i.i.i, i64 2147483647)
  %.0.i6.i.i.i.i.i.i.i = trunc nsw i64 %.08.i.i.i.i.i.i.i.i to i32
  br label %_ZNKSt4lessINSt7__cxx1112basic_stringIcSt11char_traitsIcESaIcEEEEclERKS5_S8_.exit.i.i.i.i

_ZNKSt4lessINSt7__cxx1112basic_stringIcSt11char_traitsIcESaIcEEEEclERKS5_S8_.exit.i.i.i.i: ; preds = %_ZNSt11char_traitsIcE7compareEPKcS2_m.exit.thread.i.i.i.i.i.i.i, %_ZNSt11char_traitsIcE7compareEPKcS2_m.exit.i.i.i.i.i.i.i
  %.0.i.i.i.i.i.i.i = phi i32 [ %17, %_ZNSt11char_traitsIcE7compareEPKcS2_m.exit.i.i.i.i.i.i.i ], [ %.0.i6.i.i.i.i.i.i.i, %_ZNSt11char_traitsIcE7compareEPKcS2_m.exit.thread.i.i.i.i.i.i.i ]
  %19 = icmp slt i32 %.0.i.i.i.i.i.i.i, 0
  %.19.i.i.i.i = select i1 %19, ptr %.0811.i.i.i.i, ptr %.012.i.i.i.i
  %.1.in.v.i.i.i.i = select i1 %19, i64 24, i64 16
  %.1.in.i.i.i.i = getelementptr inbounds nuw i8, ptr %.012.i.i.i.i, i64 %.1.in.v.i.i.i.i
  %.1.i.i.i.i = load ptr, ptr %.1.in.i.i.i.i, align 8, !tbaa !41
  %.not.i.i.i.i = icmp eq ptr %.1.i.i.i.i, null
  br i1 %.not.i.i.i.i, label %_ZNKSt8_Rb_treeINSt7__cxx1112basic_stringIcSt11char_traitsIcESaIcEEESt4pairIKS5_N2cv3dnn14dnn4_v202412239DictValueEESt10_Select1stISC_ESt4lessIS5_ESaISC_EE14_M_lower_boundEPKSt13_Rb_tree_nodeISC_EPKSt18_Rb_tree_node_baseRS7_.exit.i.i.i, label %.lr.ph.i.i.i.i, !llvm.loop !297

_ZNKSt8_Rb_treeINSt7__cxx1112basic_stringIcSt11char_traitsIcESaIcEEESt4pairIKS5_N2cv3dnn14dnn4_v202412239DictValueEESt10_Select1stISC_ESt4lessIS5_ESaISC_EE14_M_lower_boundEPKSt13_Rb_tree_nodeISC_EPKSt18_Rb_tree_node_baseRS7_.exit.i.i.i: ; preds = %_ZNKSt4lessINSt7__cxx1112basic_stringIcSt11char_traitsIcESaIcEEEEclERKS5_S8_.exit.i.i.i.i
  %20 = icmp eq ptr %.19.i.i.i.i, %11
  br i1 %20, label %_ZNSt7__cxx1112basic_stringIcSt11char_traitsIcESaIcEED2Ev.exit.thread, label %21

21:                                               ; preds = %_ZNKSt8_Rb_treeINSt7__cxx1112basic_stringIcSt11char_traitsIcESaIcEEESt4pairIKS5_N2cv3dnn14dnn4_v202412239DictValueEESt10_Select1stISC_ESt4lessIS5_ESaISC_EE14_M_lower_boundEPKSt13_Rb_tree_nodeISC_EPKSt18_Rb_tree_node_baseRS7_.exit.i.i.i
  %22 = getelementptr inbounds nuw i8, ptr %.19.i.i.i.i, i64 40
  %23 = load i64, ptr %22, align 8, !tbaa !40
  %24 = icmp eq i64 %23, 0
  br i1 %24, label %_ZNSt11char_traitsIcE7compareEPKcS2_m.exit.thread.i.i.i.i.i.i, label %_ZNSt11char_traitsIcE7compareEPKcS2_m.exit.i.i.i.i.i.i

_ZNSt11char_traitsIcE7compareEPKcS2_m.exit.i.i.i.i.i.i: ; preds = %21
  %.sroa.speculated.i.i.i.i.i.i = call i64 @llvm.umin.i64(i64 %23, i64 9)
  %25 = getelementptr inbounds nuw i8, ptr %.19.i.i.i.i, i64 32
  %26 = load ptr, ptr %25, align 8, !tbaa !36
  %27 = call i32 @memcmp(ptr noundef nonnull %6, ptr noundef %26, i64 noundef %.sroa.speculated.i.i.i.i.i.i) #31
  %.not.i.i.i.i.i.i = icmp eq i32 %27, 0
  br i1 %.not.i.i.i.i.i.i, label %_ZNSt11char_traitsIcE7compareEPKcS2_m.exit.thread.i.i.i.i.i.i, label %_ZNSt7__cxx1112basic_stringIcSt11char_traitsIcESaIcEED2Ev.exit

_ZNSt11char_traitsIcE7compareEPKcS2_m.exit.thread.i.i.i.i.i.i: ; preds = %_ZNSt11char_traitsIcE7compareEPKcS2_m.exit.i.i.i.i.i.i, %21
  %28 = sub i64 9, %23
  %spec.select7.i.i.i.i.i.i.i = call i64 @llvm.smax.i64(i64 %28, i64 -2147483648)
  %.08.i.i.i.i.i.i.i = call i64 @llvm.smin.i64(i64 %spec.select7.i.i.i.i.i.i.i, i64 2147483647)
  %.0.i6.i.i.i.i.i.i = trunc nsw i64 %.08.i.i.i.i.i.i.i to i32
  br label %_ZNSt7__cxx1112basic_stringIcSt11char_traitsIcESaIcEED2Ev.exit

_ZNSt7__cxx1112basic_stringIcSt11char_traitsIcESaIcEED2Ev.exit.thread: ; preds = %_ZNKSt8_Rb_treeINSt7__cxx1112basic_stringIcSt11char_traitsIcESaIcEEESt4pairIKS5_N2cv3dnn14dnn4_v202412239DictValueEESt10_Select1stISC_ESt4lessIS5_ESaISC_EE14_M_lower_boundEPKSt13_Rb_tree_nodeISC_EPKSt18_Rb_tree_node_baseRS7_.exit.i.i.i, %._crit_edge.i.i
  call void @llvm.lifetime.end.p0(i64 32, ptr nonnull %3) #31
  br label %30

_ZNSt7__cxx1112basic_stringIcSt11char_traitsIcESaIcEED2Ev.exit: ; preds = %_ZNSt11char_traitsIcE7compareEPKcS2_m.exit.i.i.i.i.i.i, %_ZNSt11char_traitsIcE7compareEPKcS2_m.exit.thread.i.i.i.i.i.i
  %.0.i.i.i.i.i.i = phi i32 [ %27, %_ZNSt11char_traitsIcE7compareEPKcS2_m.exit.i.i.i.i.i.i ], [ %.0.i6.i.i.i.i.i.i, %_ZNSt11char_traitsIcE7compareEPKcS2_m.exit.thread.i.i.i.i.i.i ]
  %29 = icmp slt i32 %.0.i.i.i.i.i.i, 0
  call void @llvm.lifetime.end.p0(i64 32, ptr nonnull %3) #31
  br i1 %29, label %30, label %42

30:                                               ; preds = %_ZNSt7__cxx1112basic_stringIcSt11char_traitsIcESaIcEED2Ev.exit.thread, %_ZNSt7__cxx1112basic_stringIcSt11char_traitsIcESaIcEED2Ev.exit
  call void @llvm.lifetime.start.p0(i64 32, ptr nonnull %4) #31
  call void @llvm.lifetime.start.p0(i64 1, ptr nonnull %5) #31
  call void @_ZNSt7__cxx1112basic_stringIcSt11char_traitsIcESaIcEEC2EPKcRKS3_(ptr noundef nonnull align 8 dereferenceable(32) %4, ptr noundef nonnull @.str.407, ptr noundef nonnull align 1 dereferenceable(1) %5)
  %31 = invoke noundef zeroext i1 @_ZNK2cv3dnn14dnn4_v202412234Dict3hasERKNSt7__cxx1112basic_stringIcSt11char_traitsIcESaIcEEE(ptr noundef nonnull align 8 dereferenceable(48) %1, ptr noundef nonnull align 8 dereferenceable(32) %4)
          to label %32 unwind label %34

32:                                               ; preds = %30
  invoke void @_ZN2cv6detail17check_failed_trueEbRKNS0_12CheckContextE(i1 noundef zeroext %31, ptr noundef nonnull align 8 dereferenceable(48) @_ZZN2cv3dnn14dnn4_v2024122312ONNXImporter18parseDepthSpaceOpsERNS1_11LayerParamsERKN11opencv_onnx9NodeProtoEE16__cv_check__2913) #34
          to label %33 unwind label %34

33:                                               ; preds = %32
  unreachable

34:                                               ; preds = %32, %30
  %35 = landingpad { ptr, i32 }
          cleanup
  %36 = load ptr, ptr %4, align 8, !tbaa !36
  %37 = getelementptr inbounds nuw i8, ptr %4, i64 16
  %38 = icmp eq ptr %36, %37
  br i1 %38, label %_ZNKSt7__cxx1112basic_stringIcSt11char_traitsIcESaIcEE11_M_is_localEv.exit.thread.i.i17, label %_ZNKSt7__cxx1112basic_stringIcSt11char_traitsIcESaIcEE11_M_is_localEv.exit.i.i16

_ZNKSt7__cxx1112basic_stringIcSt11char_traitsIcESaIcEE11_M_is_localEv.exit.thread.i.i17: ; preds = %34
  %39 = getelementptr inbounds nuw i8, ptr %4, i64 8
  %40 = load i64, ptr %39, align 8, !tbaa !40
  %41 = icmp ult i64 %40, 16
  call void @llvm.assume(i1 %41)
  br label %_ZNSt7__cxx1112basic_stringIcSt11char_traitsIcESaIcEED2Ev.exit18

_ZNKSt7__cxx1112basic_stringIcSt11char_traitsIcESaIcEE11_M_is_localEv.exit.i.i16: ; preds = %34
  call void @_ZdlPv(ptr noundef %36) #32
  br label %_ZNSt7__cxx1112basic_stringIcSt11char_traitsIcESaIcEED2Ev.exit18

_ZNSt7__cxx1112basic_stringIcSt11char_traitsIcESaIcEED2Ev.exit18: ; preds = %_ZNKSt7__cxx1112basic_stringIcSt11char_traitsIcESaIcEE11_M_is_localEv.exit.i.i16, %_ZNKSt7__cxx1112basic_stringIcSt11char_traitsIcESaIcEE11_M_is_localEv.exit.thread.i.i17
  call void @llvm.lifetime.end.p0(i64 1, ptr nonnull %5) #31
  call void @llvm.lifetime.end.p0(i64 32, ptr nonnull %4) #31
  resume { ptr, i32 } %35

42:                                               ; preds = %_ZNSt7__cxx1112basic_stringIcSt11char_traitsIcESaIcEED2Ev.exit
  call void @_ZN2cv3dnn14dnn4_v2024122312ONNXImporter8addLayerERNS1_11LayerParamsERKN11opencv_onnx9NodeProtoEi(ptr noundef nonnull align 8 dereferenceable(585) %0, ptr noundef nonnull align 8 dereferenceable(136) %1, ptr noundef nonnull align 8 dereferenceable(128) %2, i32 noundef 2147483647)
  ret void
}